; Function Attrs: nounwind uwtable
define dso_local void @packfloat(float noundef %0, ptr noundef %1) #0 {
  %3 = fmul float %0, 1.000000e+06
  %4 = bitcast float %3 to i32
  %5 = tail call noundef i32 @llvm.bswap.i32(i32 %4)
  %6 = getelementptr inbounds nuw i8, ptr %1, i64 16
  %7 = load i32, ptr %6, align 8
  %8 = getelementptr inbounds nuw i8, ptr %1, i64 20
  %9 = load i32, ptr %8, align 4
  %10 = sub i32 %7, %9
  %11 = icmp ult i32 %10, 4
  br i1 %11, label %12, label %try_grow_buf_remaining.exit.i

12:                                               ; preds = %2
  %13 = add i32 %7, 16384
  %14 = zext i32 %13 to i64
  %15 = getelementptr inbounds nuw i8, ptr %1, i64 24
  %16 = load i8, ptr %15, align 8, !range !8, !noundef !9
  %17 = trunc nuw i8 %16 to i1
  br i1 %17, label %pack32.exit, label %18

18:                                               ; preds = %12
  %19 = getelementptr inbounds nuw i8, ptr %1, i64 25
  %20 = load i8, ptr %19, align 1, !range !8, !noundef !9
  %21 = trunc nuw i8 %20 to i1
  br i1 %21, label %pack32.exit, label %22

22:                                               ; preds = %18
  %23 = icmp ugt i32 %13, -65536
  br i1 %23, label %24, label %26

24:                                               ; preds = %22
  %25 = tail call i32 (ptr, ...) @error(ptr noundef nonnull @.str.8, ptr noundef nonnull @__func__.try_grow_buf, i64 noundef %14, i32 noundef -65536) #14
  br label %pack32.exit

26:                                               ; preds = %22
  %27 = getelementptr inbounds nuw i8, ptr %1, i64 8
  %28 = tail call ptr @slurm_xrecalloc(ptr noundef nonnull %27, i64 noundef 1, i64 noundef %14, i1 noundef zeroext true, i1 noundef zeroext true, ptr noundef nonnull @.str.1, i32 noundef 238, ptr noundef nonnull @__func__.try_grow_buf) #14
  %.not.i.i.i = icmp eq ptr %28, null
  br i1 %.not.i.i.i, label %pack32.exit, label %29

29:                                               ; preds = %26
  store i32 %13, ptr %6, align 8
  %.pre.i = load i32, ptr %8, align 4
  br label %try_grow_buf_remaining.exit.i

try_grow_buf_remaining.exit.i:                    ; preds = %29, %2
  %30 = phi i32 [ %.pre.i, %29 ], [ %9, %2 ]
  %31 = getelementptr inbounds nuw i8, ptr %1, i64 8
  %32 = load ptr, ptr %31, align 8
  %33 = zext i32 %30 to i64
  %34 = getelementptr inbounds nuw i8, ptr %32, i64 %33
  store i32 %5, ptr %34, align 1
  %35 = load i32, ptr %8, align 4
  %36 = add i32 %35, 4
  store i32 %36, ptr %8, align 4
  br label %pack32.exit

pack32.exit:                                      ; preds = %12, %18, %24, %26, %try_grow_buf_remaining.exit.i
  ret void
}